Certificate:
    Data:
        Version: 3 (0x2)
        Serial Number: 4096 (0x1000)
    Signature Algorithm: sha256WithRSAEncryption
        Issuer: CN=ruijie
        Validity
            Not Before: Jan  1 00:00:00 1970 GMT
            Not After : Jun 29 09:33:31 3019 GMT
        Subject: CN=ruijie
        Subject Public Key Info:
            Public Key Algorithm: rsaEncryption
                Public-Key: (2048 bit)
                Modulus:
                    00:ae:34:15:0d:04:f3:60:d6:dc:45:42:a9:3e:b7:
                    f7:3f:01:ad:25:d7:9c:2e:60:c4:04:40:20:fd:e7:
                    ab:61:41:96:d4:23:60:1e:5b:ed:e0:19:82:ff:2e:
                    87:91:6f:b0:be:46:df:a1:65:51:b3:9c:5d:08:f3:
                    86:73:1f:33:93:4e:f8:07:4c:82:6c:33:ff:7b:08:
                    69:c9:9f:35:73:b1:a8:2c:80:7c:d4:14:2d:58:bb:
                    b1:ed:8c:3f:a1:9c:4c:4b:fa:ef:bd:e5:85:94:92:
                    ac:00:28:ac:03:4d:d4:c6:f2:18:9d:da:23:40:38:
                    36:99:2d:16:c1:a1:7e:9b:d5:00:15:23:19:ef:2d:
                    ea:1f:06:49:a7:40:dd:31:0b:f5:d2:e5:23:23:4f:
                    6b:33:d3:83:24:bb:09:06:99:2a:bc:11:f3:5a:c5:
                    ee:2d:30:8b:c0:0e:f5:34:16:7a:98:e5:9f:37:d3:
                    81:d5:0e:1e:77:5d:28:9a:5f:97:f0:80:86:78:36:
                    1c:80:e1:c3:8b:5c:07:e8:53:4b:be:2e:d1:6e:f2:
                    4a:3e:0a:a8:aa:80:1e:be:0e:56:60:7b:3d:a4:6f:
                    7a:e3:86:09:fc:10:f4:eb:44:b0:3e:d0:5c:fb:85:
                    31:22:8e:f9:33:02:39:8c:2a:6e:0e:68:60:cf:27:
                    00:a7
                Exponent: 65537 (0x10001)
        X509v3 extensions:
            X509v3 Subject Key Identifier: 
                D6:B8:E9:9E:01:59:E2:66:70:FA:66:99:72:96:FB:B9:55:A1:F3:9C
            X509v3 Authority Key Identifier: 
                keyid:D6:B8:E9:9E:01:59:E2:66:70:FA:66:99:72:96:FB:B9:55:A1:F3:9C

            X509v3 Basic Constraints: critical
                CA:TRUE
            X509v3 Key Usage: critical
                Digital Signature, Certificate Sign, CRL Sign
    Signature Algorithm: sha256WithRSAEncryption
         11:20:94:8b:d3:ef:72:33:01:ba:0a:da:3b:67:b6:26:7f:7b:
         8a:de:22:43:81:a4:20:d3:32:1d:fd:60:44:9b:f9:00:5b:cf:
         fd:b5:6e:12:2b:5a:97:56:c4:45:95:18:46:17:2d:8a:88:45:
         94:f3:f4:b4:c8:32:8b:50:25:27:0a:95:16:82:ab:29:c1:c6:
         3f:47:95:48:14:90:b9:c2:bb:40:f8:20:53:57:f6:bf:69:c8:
         85:70:c4:9d:8f:35:88:64:2c:23:6e:1e:d5:14:94:77:62:c7:
         ba:23:f3:bb:b2:92:7a:ad:58:36:db:4a:72:22:8d:9f:53:d9:
         e3:08:9a:56:1e:f7:1c:5e:7f:25:c5:55:18:37:ef:32:d4:83:
         49:54:21:b3:73:3e:35:ed:f4:d4:6a:13:ca:5f:c9:9f:f2:36:
         df:c6:68:e6:a2:c2:82:50:c8:9e:e1:a3:18:c8:42:13:55:c4:
         81:78:ee:17:9d:e1:4a:b1:26:6d:d0:e0:14:8c:ab:d7:b4:13:
         b4:52:73:ff:46:10:77:71:52:fb:39:22:bc:c5:28:69:e3:5d:
         5f:2f:9e:8c:1d:7d:38:eb:bd:d9:23:80:06:f0:4d:d0:5b:5c:
         46:ce:4a:f1:2b:ff:e0:58:54:c8:6d:b3:0e:16:31:e0:e7:82:
         99:1f:2a:10
-----BEGIN CERTIFICATE-----
MIIDBTCCAe2gAwIBAgICEAAwDQYJKoZIhvcNAQELBQAwETEPMA0GA1UEAwwGcnVp
amllMCIYDzE5NzAwMTAxMDAwMDAwWhgPMzAxOTA2MjkwOTMzMzFaMBExDzANBgNV
BAMMBnJ1aWppZTCCASIwDQYJKoZIhvcNAQEBBQADggEPADCCAQoCggEBAK40FQ0E
82DW3EVCqT639z8BrSXXnC5gxARAIP3nq2FBltQjYB5b7eAZgv8uh5FvsL5G36Fl
UbOcXQjzhnMfM5NO+AdMgmwz/3sIacmfNXOxqCyAfNQULVi7se2MP6GcTEv6773l
hZSSrAAorANN1MbyGJ3aI0A4NpktFsGhfpvVABUjGe8t6h8GSadA3TEL9dLlIyNP
azPTgyS7CQaZKrwR81rF7i0wi8AO9TQWepjlnzfTgdUOHnddKJpfl/CAhng2HIDh
w4tcB+hTS74u0W7ySj4KqKqAHr4OVmB7PaRveuOGCfwQ9OtEsD7QXPuFMSKO+TMC
OYwqbg5oYM8nAKcCAwEAAaNjMGEwHQYDVR0OBBYEFNa46Z4BWeJmcPpmmXKW+7lV
ofOcMB8GA1UdIwQYMBaAFNa46Z4BWeJmcPpmmXKW+7lVofOcMA8GA1UdEwEB/wQF
MAMBAf8wDgYDVR0PAQH/BAQDAgGGMA0GCSqGSIb3DQEBCwUAA4IBAQARIJSL0+9y
MwG6Cto7Z7Ymf3uK3iJDgaQg0zId/WBEm/kAW8/9tW4SK1qXVsRFlRhGFy2KiEWU
8/S0yDKLUCUnCpUWgqspwcY/R5VIFJC5wrtA+CBTV/a/aciFcMSdjzWIZCwjbh7V
FJR3Yse6I/O7spJ6rVg220pyIo2fU9njCJpWHvccXn8lxVUYN+8y1INJVCGzcz41
7fTUahPKX8mf8jbfxmjmosKCUMie4aMYyEITVcSBeO4XneFKsSZt0OAUjKvXtBO0
UnP/RhB3cVL7OSK8xShp411fL56MHX04673ZI4AG8E3QW1xGzkrxK//gWFTIbbMO
FjHg54KZHyoQ
-----END CERTIFICATE-----
