Certificate:
    Data:
        Version: 3 (0x2)
        Serial Number: 4097 (0x1001)
    Signature Algorithm: sha256WithRSAEncryption
        Issuer: CN=ruijie
        Validity
            Not Before: Jan  1 00:00:00 1970 GMT
            Not After : Jun 29 09:33:31 3019 GMT
        Subject: CN=ruijie, O=server
        Subject Public Key Info:
            Public Key Algorithm: rsaEncryption
                Public-Key: (2048 bit)
                Modulus:
                    00:95:79:bb:8a:26:c0:63:92:d1:42:b8:dc:02:10:
                    cd:28:41:55:30:89:7e:d3:0c:6b:22:b4:f3:5f:da:
                    b9:96:33:0c:58:ce:7e:27:e3:16:21:78:e2:45:79:
                    07:28:9d:03:df:80:ab:db:ce:3c:49:bf:4c:7b:2e:
                    37:61:55:cd:be:1f:b3:dd:c8:2a:ee:9a:0d:42:15:
                    2a:c8:7a:41:20:e1:99:53:bb:e0:dc:7b:b9:4e:e0:
                    e2:fc:49:0b:97:ff:81:f3:a5:fe:28:8c:92:b8:8a:
                    1a:ee:05:46:e9:40:db:7e:df:db:06:06:e5:22:20:
                    5f:2b:a4:60:83:89:33:36:98:6e:e9:17:22:7d:1d:
                    fa:22:59:fd:6f:8a:f6:5a:ac:65:fb:d0:98:92:6f:
                    13:9b:d0:3b:5d:3c:08:69:f0:be:a8:52:16:f1:1a:
                    20:a7:6d:a8:cc:dd:cf:06:3e:be:ae:ee:b3:14:d4:
                    28:44:48:c7:c4:c5:05:0a:b3:ee:39:27:b3:dc:47:
                    4e:79:64:60:3a:5d:bc:c7:14:c8:78:bd:5e:2f:ac:
                    8c:b3:d5:ea:29:04:40:4d:67:b0:16:8f:7c:6d:3d:
                    11:02:e9:f1:25:39:a7:af:68:60:29:aa:84:0d:11:
                    ce:15:cc:14:98:d9:38:1d:9c:a7:24:e8:c1:6d:0c:
                    4e:09
                Exponent: 65537 (0x10001)
        X509v3 extensions:
            X509v3 Basic Constraints: 
                CA:FALSE
            Netscape Cert Type: 
                SSL Server
            Netscape Comment: 
                OpenSSL Generated Server Certificate
            X509v3 Subject Key Identifier: 
                33:96:FB:84:F0:A9:76:C2:F6:7F:2D:0C:58:2D:4A:34:4D:E9:AB:A2
            X509v3 Authority Key Identifier: 
                keyid:D6:B8:E9:9E:01:59:E2:66:70:FA:66:99:72:96:FB:B9:55:A1:F3:9C
                DirName:/CN=ruijie
                serial:10:00

            X509v3 Key Usage: critical
                Digital Signature, Key Encipherment
            X509v3 Extended Key Usage: 
                TLS Web Server Authentication
    Signature Algorithm: sha256WithRSAEncryption
         73:c6:7c:e9:a4:2c:61:39:81:52:68:98:91:5b:c5:11:7f:db:
         0c:11:13:2c:57:01:60:6f:d5:bc:48:72:cf:6a:c1:1f:22:56:
         75:ad:eb:fa:d7:2b:b0:11:19:70:fa:b5:7a:14:a9:1f:d7:d5:
         3e:f3:39:0d:88:92:66:33:18:59:87:7e:00:92:9a:f9:2c:38:
         19:f9:a1:b4:37:69:49:01:1f:e2:69:c8:7f:f0:67:0c:90:24:
         d4:13:b7:38:7e:c1:a3:0e:de:03:4e:4b:fc:0b:43:e2:d8:ed:
         95:89:7e:6d:8d:f5:4e:72:21:d8:86:79:32:a5:ff:95:89:2a:
         54:c7:a6:1f:a8:54:27:18:e0:21:8d:b2:3e:a8:f2:4d:e2:09:
         33:9a:00:a0:6e:ef:65:bf:de:87:b6:8b:8e:76:c4:f6:e2:44:
         78:35:54:15:a1:9f:b5:d4:13:1b:a6:fa:27:2f:df:7a:87:1d:
         79:fb:e2:25:97:aa:e9:3a:26:55:5f:72:7f:32:20:3d:e4:b3:
         5e:9b:17:e6:07:65:d1:85:5c:17:88:09:83:7b:5a:24:4a:3b:
         c4:a2:8f:14:99:a4:74:17:1e:f2:e1:d2:1a:44:ec:3d:a0:33:
         95:00:05:98:e4:29:57:18:0f:c7:92:04:8e:f4:49:09:a4:4f:
         c8:de:33:13
-----BEGIN CERTIFICATE-----
MIIDijCCAnKgAwIBAgICEAEwDQYJKoZIhvcNAQELBQAwETEPMA0GA1UEAwwGcnVp
amllMCIYDzE5NzAwMTAxMDAwMDAwWhgPMzAxOTA2MjkwOTMzMzFaMCIxDzANBgNV
BAMMBnJ1aWppZTEPMA0GA1UECgwGc2VydmVyMIIBIjANBgkqhkiG9w0BAQEFAAOC
AQ8AMIIBCgKCAQEAlXm7iibAY5LRQrjcAhDNKEFVMIl+0wxrIrTzX9q5ljMMWM5+
J+MWIXjiRXkHKJ0D34Cr2848Sb9Mey43YVXNvh+z3cgq7poNQhUqyHpBIOGZU7vg
3Hu5TuDi/EkLl/+B86X+KIySuIoa7gVG6UDbft/bBgblIiBfK6Rgg4kzNphu6Rci
fR36Iln9b4r2Wqxl+9CYkm8Tm9A7XTwIafC+qFIW8Rogp22ozN3PBj6+ru6zFNQo
REjHxMUFCrPuOSez3EdOeWRgOl28xxTIeL1eL6yMs9XqKQRATWewFo98bT0RAunx
JTmnr2hgKaqEDRHOFcwUmNk4HZynJOjBbQxOCQIDAQABo4HWMIHTMAkGA1UdEwQC
MAAwEQYJYIZIAYb4QgEBBAQDAgZAMDMGCWCGSAGG+EIBDQQmFiRPcGVuU1NMIEdl
bmVyYXRlZCBTZXJ2ZXIgQ2VydGlmaWNhdGUwHQYDVR0OBBYEFDOW+4TwqXbC9n8t
DFgtSjRN6auiMDoGA1UdIwQzMDGAFNa46Z4BWeJmcPpmmXKW+7lVofOcoRWkEzAR
MQ8wDQYDVQQDDAZydWlqaWWCAhAAMA4GA1UdDwEB/wQEAwIFoDATBgNVHSUEDDAK
BggrBgEFBQcDATANBgkqhkiG9w0BAQsFAAOCAQEAc8Z86aQsYTmBUmiYkVvFEX/b
DBETLFcBYG/VvEhyz2rBHyJWda3r+tcrsBEZcPq1ehSpH9fVPvM5DYiSZjMYWYd+
AJKa+Sw4GfmhtDdpSQEf4mnIf/BnDJAk1BO3OH7Bow7eA05L/AtD4tjtlYl+bY31
TnIh2IZ5MqX/lYkqVMemH6hUJxjgIY2yPqjyTeIJM5oAoG7vZb/eh7aLjnbE9uJE
eDVUFaGftdQTG6b6Jy/feocdefviJZeq6TomVV9yfzIgPeSzXpsX5gdl0YVcF4gJ
g3taJEo7xKKPFJmkdBce8uHSGkTsPaAzlQAFmOQpVxgPx5IEjvRJCaRPyN4zEw==
-----END CERTIFICATE-----
