Certificate:
    Data:
        Version: 3 (0x2)
        Serial Number: 4098 (0x1002)
    Signature Algorithm: sha256WithRSAEncryption
        Issuer: CN=ruijie
        Validity
            Not Before: Jan  1 00:00:00 1970 GMT
            Not After : Jun 29 09:33:31 3019 GMT
        Subject: CN=ruijie, O=client
        Subject Public Key Info:
            Public Key Algorithm: rsaEncryption
                Public-Key: (2048 bit)
                Modulus:
                    00:bb:d5:e5:c7:4f:1c:74:a2:87:30:38:99:21:48:
                    f0:96:25:dd:db:8c:e5:b1:12:8b:b8:31:1a:a9:2b:
                    4d:4f:fa:ca:0c:e9:e3:00:66:d8:e4:76:38:9f:73:
                    be:86:92:52:87:1d:73:37:3c:62:12:9c:6b:09:b7:
                    92:77:2d:49:d9:a4:b5:7b:12:c3:c5:eb:c0:a0:7c:
                    0e:2c:8b:8c:e9:de:d7:53:da:24:04:b4:01:bc:0f:
                    5a:ee:75:34:a4:21:8d:a1:61:b0:a6:f2:93:ef:3d:
                    c0:7e:54:33:87:ca:54:8d:70:89:ef:b5:b6:1b:ac:
                    f8:e4:c1:e3:05:89:82:30:c1:d2:1a:6b:1f:15:56:
                    6b:22:35:49:3b:e0:85:8a:75:42:f6:8d:85:3a:2c:
                    91:42:ba:05:88:2e:1f:09:e3:8b:df:15:cf:1b:55:
                    3e:f7:78:18:d6:80:ca:e7:c1:d9:0d:64:40:5c:0e:
                    6a:14:1a:5d:ba:6b:40:f5:6a:fa:67:9d:a9:72:98:
                    b1:c6:95:83:64:3c:0b:05:4a:81:9e:07:da:88:30:
                    f4:e8:6a:c2:5f:d4:26:96:4b:54:b1:cf:dd:d4:e5:
                    f2:b0:78:26:91:ec:42:75:32:6a:2a:6c:08:49:09:
                    40:c9:92:0d:88:fd:74:7b:68:2f:73:f6:eb:8f:9a:
                    93:f1
                Exponent: 65537 (0x10001)
        X509v3 extensions:
            X509v3 Basic Constraints: 
                CA:FALSE
            Netscape Cert Type: 
                SSL Client, S/MIME
            Netscape Comment: 
                OpenSSL Generated Client Certificate
            X509v3 Subject Key Identifier: 
                B1:AE:E3:84:CF:B4:85:7E:4D:EA:19:88:44:93:9D:F5:05:E8:31:4A
            X509v3 Authority Key Identifier: 
                keyid:D6:B8:E9:9E:01:59:E2:66:70:FA:66:99:72:96:FB:B9:55:A1:F3:9C

            X509v3 Key Usage: critical
                Digital Signature, Non Repudiation, Key Encipherment
            X509v3 Extended Key Usage: 
                TLS Web Client Authentication, E-mail Protection
    Signature Algorithm: sha256WithRSAEncryption
         47:d0:52:4b:54:9f:6c:f9:b7:6c:fe:73:6a:77:c9:56:3d:2a:
         68:cf:59:a7:28:b1:52:d1:3f:9a:6d:eb:f9:0b:cc:58:2c:ca:
         3c:56:dc:43:2a:a3:0a:57:26:96:cf:cf:89:3e:0f:27:79:5f:
         eb:21:55:f2:7d:ae:83:e8:df:99:45:77:6b:da:3f:0a:43:dd:
         dd:3f:df:23:50:ec:fe:41:d5:6c:e0:cd:62:41:ce:b8:3a:db:
         ec:1b:93:cc:0c:11:67:34:05:9b:9d:c7:f6:8c:2f:ac:68:4e:
         b1:60:cb:86:f4:65:9f:ab:f0:24:ff:39:89:7c:aa:bb:81:3f:
         5b:fd:b0:cb:8c:d6:0b:74:28:26:65:07:b7:1f:0e:d6:02:e6:
         4c:e4:51:5f:ce:cf:d1:e3:0a:2b:b8:81:b9:36:f6:3b:99:8b:
         a0:5f:bc:40:4f:cd:7c:94:b5:31:1f:f6:be:2c:d7:1c:75:90:
         e9:46:e6:b9:d4:bb:d7:68:0c:46:20:cd:4e:b8:60:73:c7:9f:
         09:dc:3b:65:a5:ba:57:7c:8d:32:3e:f4:45:cb:50:8d:c1:6f:
         76:42:51:bc:54:f1:09:4f:c6:0a:43:cf:eb:34:63:99:ee:e8:
         fb:38:97:af:14:0b:ca:71:81:c4:ec:f5:00:0f:f6:b0:f3:32:
         ab:e9:70:0f
-----BEGIN CERTIFICATE-----
MIIDeTCCAmGgAwIBAgICEAIwDQYJKoZIhvcNAQELBQAwETEPMA0GA1UEAwwGcnVp
amllMCIYDzE5NzAwMTAxMDAwMDAwWhgPMzAxOTA2MjkwOTMzMzFaMCIxDzANBgNV
BAMMBnJ1aWppZTEPMA0GA1UECgwGY2xpZW50MIIBIjANBgkqhkiG9w0BAQEFAAOC
AQ8AMIIBCgKCAQEAu9Xlx08cdKKHMDiZIUjwliXd24zlsRKLuDEaqStNT/rKDOnj
AGbY5HY4n3O+hpJShx1zNzxiEpxrCbeSdy1J2aS1exLDxevAoHwOLIuM6d7XU9ok
BLQBvA9a7nU0pCGNoWGwpvKT7z3AflQzh8pUjXCJ77W2G6z45MHjBYmCMMHSGmsf
FVZrIjVJO+CFinVC9o2FOiyRQroFiC4fCeOL3xXPG1U+93gY1oDK58HZDWRAXA5q
FBpdumtA9Wr6Z52pcpixxpWDZDwLBUqBngfaiDD06GrCX9QmlktUsc/d1OXysHgm
kexCdTJqKmwISQlAyZINiP10e2gvc/brj5qT8QIDAQABo4HFMIHCMAkGA1UdEwQC
MAAwEQYJYIZIAYb4QgEBBAQDAgWgMDMGCWCGSAGG+EIBDQQmFiRPcGVuU1NMIEdl
bmVyYXRlZCBDbGllbnQgQ2VydGlmaWNhdGUwHQYDVR0OBBYEFLGu44TPtIV+TeoZ
iESTnfUF6DFKMB8GA1UdIwQYMBaAFNa46Z4BWeJmcPpmmXKW+7lVofOcMA4GA1Ud
DwEB/wQEAwIF4DAdBgNVHSUEFjAUBggrBgEFBQcDAgYIKwYBBQUHAwQwDQYJKoZI
hvcNAQELBQADggEBAEfQUktUn2z5t2z+c2p3yVY9KmjPWacosVLRP5pt6/kLzFgs
yjxW3EMqowpXJpbPz4k+Dyd5X+shVfJ9roPo35lFd2vaPwpD3d0/3yNQ7P5B1Wzg
zWJBzrg62+wbk8wMEWc0BZudx/aML6xoTrFgy4b0ZZ+r8CT/OYl8qruBP1v9sMuM
1gt0KCZlB7cfDtYC5kzkUV/Oz9HjCiu4gbk29juZi6BfvEBPzXyUtTEf9r4s1xx1
kOlG5rnUu9doDEYgzU64YHPHnwncO2Wluld8jTI+9EXLUI3Bb3ZCUbxU8QlPxgpD
z+s0Y5nu6Ps4l68UC8pxgcTs9QAP9rDzMqvpcA8=
-----END CERTIFICATE-----
